target datalayout = "e-m:e-p270:32:32-p271:32:32-p272:64:64-i64:64-i128:128-f80:128-n8:16:32:64-S128"
target triple = "x86_64-pc-linux-gnu"

%"class.zmq::signaler_t" = type { i32, i32, i32 }

@stderr = external global ptr, align 8
@.str = private unnamed_addr constant [12 x i8] c"%s (%s:%d)\0A\00", align 1
@.str.1 = private unnamed_addr constant [108 x i8] c"generated/home/dtcxzyw/WorkSpace/Projects/compilers/llvm-opt-benchmark/bench/libzmq/libzmq/src/signaler.cpp\00", align 1
@.str.2 = private unnamed_addr constant [30 x i8] c"Assertion failed: %s (%s:%d)\0A\00", align 1
@.str.5 = private unnamed_addr constant [11 x i8] c"dummy == 1\00", align 1

; Function Attrs: mustprogress uwtable
define void @_ZN3zmq10signaler_t4recvEv(ptr noundef nonnull align 4 dereferenceable(12) %0) #0 align 2 {
  %2 = alloca ptr, align 8
  %3 = alloca i64, align 8
  %4 = alloca i64, align 8
  %5 = alloca ptr, align 8
  %6 = alloca i64, align 8
  %7 = alloca i64, align 8
  %8 = alloca ptr, align 8
  %9 = alloca i32, align 4
  store ptr %0, ptr %2, align 8, !tbaa !3
  %10 = load ptr, ptr %2, align 8
  call void @llvm.lifetime.start.p0(i64 8, ptr %3) #9
  call void @llvm.lifetime.start.p0(i64 8, ptr %4) #9
  %11 = getelementptr inbounds nuw %"class.zmq::signaler_t", ptr %10, i32 0, i32 1
  %12 = load i32, ptr %11, align 4, !tbaa !11
  %13 = call i64 @read(i32 noundef %12, ptr noundef %3, i64 noundef 8)
  store i64 %13, ptr %4, align 8, !tbaa !20
  br label %14

14:                                               ; preds = %1
  %15 = load i64, ptr %4, align 8, !tbaa !20
  %16 = icmp eq i64 %15, 8
  %17 = xor i1 %16, true
  %18 = zext i1 %17 to i64
  %19 = call i64 @llvm.expect.i64(i64 %18, i64 0)
  %20 = icmp ne i64 %19, 0
  br i1 %20, label %21, label %31

21:                                               ; preds = %14
  call void @llvm.lifetime.start.p0(i64 8, ptr %5) #9
  %22 = call ptr @__errno_location() #10
  %23 = load i32, ptr %22, align 4, !tbaa !13
  %24 = call ptr @strerror(i32 noundef %23) #9
  store ptr %24, ptr %5, align 8, !tbaa !14
  %25 = load ptr, ptr @stderr, align 8, !tbaa !16
  %26 = load ptr, ptr %5, align 8, !tbaa !14
  %27 = call i32 (ptr, ptr, ...) @fprintf(ptr noundef %25, ptr noundef @.str, ptr noundef %26, ptr noundef @.str.1, i32 noundef 281) #9
  %28 = load ptr, ptr @stderr, align 8, !tbaa !16
  %29 = call i32 @fflush(ptr noundef %28)
  %30 = load ptr, ptr %5, align 8, !tbaa !14
  call void @_ZN3zmq9zmq_abortEPKc(ptr noundef %30)
  call void @llvm.lifetime.end.p0(i64 8, ptr %5) #9
  br label %31

31:                                               ; preds = %21, %14
  br label %32

32:                                               ; preds = %31
  br label %33

33:                                               ; preds = %32
  %34 = load i64, ptr %3, align 8, !tbaa !20
  %35 = icmp ugt i64 %34, 1
  %36 = zext i1 %35 to i64
  %37 = call i64 @llvm.expect.i64(i64 %36, i64 0)
  %38 = icmp ne i64 %37, 0
  br i1 %38, label %39, label %65

39:                                               ; preds = %33
  call void @llvm.lifetime.start.p0(i64 8, ptr %6) #9
  %40 = load i64, ptr %3, align 8, !tbaa !20
  %41 = sub i64 %40, 1
  store i64 %41, ptr %6, align 8, !tbaa !20
  call void @llvm.lifetime.start.p0(i64 8, ptr %7) #9
  %42 = getelementptr inbounds nuw %"class.zmq::signaler_t", ptr %10, i32 0, i32 0
  %43 = load i32, ptr %42, align 4, !tbaa !8
  %44 = call i64 @write(i32 noundef %43, ptr noundef %6, i64 noundef 8)
  store i64 %44, ptr %7, align 8, !tbaa !20
  br label %45

45:                                               ; preds = %39
  %46 = load i64, ptr %7, align 8, !tbaa !20
  %47 = icmp eq i64 %46, 8
  %48 = xor i1 %47, true
  %49 = zext i1 %48 to i64
  %50 = call i64 @llvm.expect.i64(i64 %49, i64 0)
  %51 = icmp ne i64 %50, 0
  br i1 %51, label %52, label %62

52:                                               ; preds = %45
  call void @llvm.lifetime.start.p0(i64 8, ptr %8) #9
  %53 = call ptr @__errno_location() #10
  %54 = load i32, ptr %53, align 4, !tbaa !13
  %55 = call ptr @strerror(i32 noundef %54) #9
  store ptr %55, ptr %8, align 8, !tbaa !14
  %56 = load ptr, ptr @stderr, align 8, !tbaa !16
  %57 = load ptr, ptr %8, align 8, !tbaa !14
  %58 = call i32 (ptr, ptr, ...) @fprintf(ptr noundef %56, ptr noundef @.str, ptr noundef %57, ptr noundef @.str.1, i32 noundef 288) #9
  %59 = load ptr, ptr @stderr, align 8, !tbaa !16
  %60 = call i32 @fflush(ptr noundef %59)
  %61 = load ptr, ptr %8, align 8, !tbaa !14
  call void @_ZN3zmq9zmq_abortEPKc(ptr noundef %61)
  call void @llvm.lifetime.end.p0(i64 8, ptr %8) #9
  br label %62

62:                                               ; preds = %52, %45
  br label %63

63:                                               ; preds = %62
  br label %64

64:                                               ; preds = %63
  store i32 1, ptr %9, align 4
  call void @llvm.lifetime.end.p0(i64 8, ptr %7) #9
  call void @llvm.lifetime.end.p0(i64 8, ptr %6) #9
  br label %81

65:                                               ; preds = %33
  br label %66

66:                                               ; preds = %65
  %67 = load i64, ptr %3, align 8, !tbaa !20
  %68 = icmp eq i64 %67, 1
  %69 = xor i1 %68, true
  %70 = zext i1 %69 to i64
  %71 = call i64 @llvm.expect.i64(i64 %70, i64 0)
  %72 = icmp ne i64 %71, 0
  br i1 %72, label %73, label %78

73:                                               ; preds = %66
  %74 = load ptr, ptr @stderr, align 8, !tbaa !16
  %75 = call i32 (ptr, ptr, ...) @fprintf(ptr noundef %74, ptr noundef @.str.2, ptr noundef @.str.5, ptr noundef @.str.1, i32 noundef 292) #9
  %76 = load ptr, ptr @stderr, align 8, !tbaa !16
  %77 = call i32 @fflush(ptr noundef %76)
  call void @_ZN3zmq9zmq_abortEPKc(ptr noundef @.str.5)
  br label %78

78:                                               ; preds = %73, %66
  br label %79

79:                                               ; preds = %78
  br label %80

80:                                               ; preds = %79
  store i32 0, ptr %9, align 4
  br label %81

81:                                               ; preds = %80, %64
  call void @llvm.lifetime.end.p0(i64 8, ptr %4) #9
  call void @llvm.lifetime.end.p0(i64 8, ptr %3) #9
  %82 = load i32, ptr %9, align 4
  switch i32 %82, label %84 [
    i32 0, label %83
    i32 1, label %83
  ]

83:                                               ; preds = %81, %81
  ret void

84:                                               ; preds = %81
  unreachable
}