; Function Attrs: mustprogress uwtable
define void @_ZN3zmq10signaler_t4recvEv(ptr noundef nonnull readonly align 4 captures(none) dereferenceable(12) %0) local_unnamed_addr #0 align 2 {
  %2 = alloca i64, align 8
  %3 = alloca i64, align 8
  call void @llvm.lifetime.start.p0(i64 8, ptr nonnull %2) #11
  %4 = getelementptr inbounds nuw i8, ptr %0, i64 4
  %5 = load i32, ptr %4, align 4, !tbaa !8
  %6 = call i64 @read(i32 noundef %5, ptr noundef nonnull %2, i64 noundef 8)
  %.not = icmp eq i64 %6, 8
  br i1 %.not, label %15, label %7, !prof !17

7:                                                ; preds = %1
  %8 = tail call ptr @__errno_location() #12
  %9 = load i32, ptr %8, align 4, !tbaa !10
  %10 = tail call ptr @strerror(i32 noundef %9) #11
  %11 = load ptr, ptr @stderr, align 8, !tbaa !14
  %12 = tail call i32 (ptr, ptr, ...) @fprintf(ptr noundef %11, ptr noundef nonnull @.str, ptr noundef %10, ptr noundef nonnull @.str.1, i32 noundef 281) #13
  %13 = load ptr, ptr @stderr, align 8, !tbaa !14
  %14 = tail call i32 @fflush(ptr noundef %13)
  tail call void @_ZN3zmq9zmq_abortEPKc(ptr noundef %10)
  br label %15

15:                                               ; preds = %7, %1
  %16 = load i64, ptr %2, align 8, !tbaa !18
  %17 = icmp ugt i64 %16, 1
  br i1 %17, label %18, label %31, !prof !24

18:                                               ; preds = %15
  call void @llvm.lifetime.start.p0(i64 8, ptr nonnull %3) #11
  %19 = add i64 %16, -1
  store i64 %19, ptr %3, align 8, !tbaa !18
  %20 = load i32, ptr %0, align 4, !tbaa !3
  %21 = call i64 @write(i32 noundef %20, ptr noundef nonnull %3, i64 noundef 8)
  %.not7 = icmp eq i64 %21, 8
  br i1 %.not7, label %30, label %22, !prof !17

22:                                               ; preds = %18
  %23 = tail call ptr @__errno_location() #12
  %24 = load i32, ptr %23, align 4, !tbaa !10
  %25 = tail call ptr @strerror(i32 noundef %24) #11
  %26 = load ptr, ptr @stderr, align 8, !tbaa !14
  %27 = tail call i32 (ptr, ptr, ...) @fprintf(ptr noundef %26, ptr noundef nonnull @.str, ptr noundef %25, ptr noundef nonnull @.str.1, i32 noundef 288) #13
  %28 = load ptr, ptr @stderr, align 8, !tbaa !14
  %29 = tail call i32 @fflush(ptr noundef %28)
  tail call void @_ZN3zmq9zmq_abortEPKc(ptr noundef %25)
  br label %30

30:                                               ; preds = %22, %18
  call void @llvm.lifetime.end.p0(i64 8, ptr nonnull %3) #11
  br label %37

31:                                               ; preds = %15
  %.not6 = icmp eq i64 %16, 1
  br i1 %.not6, label %37, label %32, !prof !17

32:                                               ; preds = %31
  %33 = load ptr, ptr @stderr, align 8, !tbaa !14
  %34 = tail call i32 (ptr, ptr, ...) @fprintf(ptr noundef %33, ptr noundef nonnull @.str.2, ptr noundef nonnull @.str.5, ptr noundef nonnull @.str.1, i32 noundef 292) #13
  %35 = load ptr, ptr @stderr, align 8, !tbaa !14
  %36 = tail call i32 @fflush(ptr noundef %35)
  tail call void @_ZN3zmq9zmq_abortEPKc(ptr noundef nonnull @.str.5)
  br label %37

37:                                               ; preds = %31, %32, %30
  call void @llvm.lifetime.end.p0(i64 8, ptr nonnull %2) #11
  ret void
}